target datalayout = "e-m:e-p270:32:32-p271:32:32-p272:64:64-i64:64-i128:128-f80:128-n8:16:32:64-S128"
target triple = "x86_64-pc-linux-gnu"

%struct.curl_pollfds = type { ptr, i32, i32, i8 }

; Function Attrs: nounwind uwtable
define dso_local void @Curl_pollfds_init(ptr noundef %0, ptr noundef %1, i32 noundef %2) #0 {
  %4 = alloca ptr, align 8
  %5 = alloca ptr, align 8
  %6 = alloca i32, align 4
  store ptr %0, ptr %4, align 8, !tbaa !25
  store ptr %1, ptr %5, align 8, !tbaa !15
  store i32 %2, ptr %6, align 4, !tbaa !8
  br label %7

7:                                                ; preds = %3
  br label %8

8:                                                ; preds = %7
  %9 = load ptr, ptr %4, align 8, !tbaa !25
  call void @llvm.memset.p0.i64(ptr align 8 %9, i8 0, i64 24, i1 false)
  %10 = load ptr, ptr %5, align 8, !tbaa !15
  %11 = icmp ne ptr %10, null
  br i1 %11, label %12, label %22

12:                                               ; preds = %8
  %13 = load i32, ptr %6, align 4, !tbaa !8
  %14 = icmp ne i32 %13, 0
  br i1 %14, label %15, label %22

15:                                               ; preds = %12
  %16 = load ptr, ptr %5, align 8, !tbaa !15
  %17 = load ptr, ptr %4, align 8, !tbaa !25
  %18 = getelementptr inbounds nuw %struct.curl_pollfds, ptr %17, i32 0, i32 0
  store ptr %16, ptr %18, align 8, !tbaa !27
  %19 = load i32, ptr %6, align 4, !tbaa !8
  %20 = load ptr, ptr %4, align 8, !tbaa !25
  %21 = getelementptr inbounds nuw %struct.curl_pollfds, ptr %20, i32 0, i32 2
  store i32 %19, ptr %21, align 4, !tbaa !29
  br label %22

22:                                               ; preds = %15, %12, %8
  ret void
}