; Function Attrs: mustprogress nofree norecurse nosync nounwind willreturn memory(argmem: write) uwtable
define dso_local void @Curl_pollfds_init(ptr noundef writeonly captures(none) initializes((0, 24)) %0, ptr noundef %1, i32 noundef %2) local_unnamed_addr #4 {
  tail call void @llvm.memset.p0.i64(ptr noundef nonnull align 8 dereferenceable(24) %0, i8 0, i64 24, i1 false)
  %4 = icmp ne ptr %1, null
  %5 = icmp ne i32 %2, 0
  %or.cond = and i1 %4, %5
  br i1 %or.cond, label %6, label %8

6:                                                ; preds = %3
  store ptr %1, ptr %0, align 8, !tbaa !16
  %7 = getelementptr inbounds nuw i8, ptr %0, i64 12
  store i32 %2, ptr %7, align 4, !tbaa !20
  br label %8

8:                                                ; preds = %6, %3
  ret void
}